target datalayout = "e-m:e-p270:32:32-p271:32:32-p272:64:64-i64:64-i128:128-f80:128-n8:16:32:64-S128"
target triple = "x86_64-pc-linux-gnu"

%"class.std::__cxx11::basic_string" = type { %"struct.std::__cxx11::basic_string<char>::_Alloc_hider", i64, %union.anon }
%"struct.std::__cxx11::basic_string<char>::_Alloc_hider" = type { ptr }
%union.anon = type { i64, [8 x i8] }
%"class.std::allocator" = type { i8 }
%"class.llvm::StringRef" = type { ptr, i64 }

@.str.26 = private unnamed_addr constant [5 x i8] c"host\00", align 1
@.str.30 = private unnamed_addr constant [2 x i8] c"-\00", align 1
@.str.31 = private unnamed_addr constant [5 x i8] c"cuda\00", align 1
@.str.32 = private unnamed_addr constant [7 x i8] c"openmp\00", align 1
@.str.33 = private unnamed_addr constant [4 x i8] c"hip\00", align 1
@.str.34 = private unnamed_addr constant [50 x i8] c"basic_string: construction from null is not valid\00", align 1

; Function Attrs: mustprogress nounwind uwtable
define linkonce_odr hidden noundef i64 @_ZNK4llvm9StringRef4sizeEv(ptr noundef nonnull align 8 dereferenceable(16) %0) #0 comdat align 2 {
  %2 = alloca ptr, align 8
  store ptr %0, ptr %2, align 8
  %3 = load ptr, ptr %2, align 8
  %4 = getelementptr inbounds nuw %"class.llvm::StringRef", ptr %3, i32 0, i32 1
  %5 = load i64, ptr %4, align 8
  ret i64 %5
}

; Function Attrs: mustprogress nounwind uwtable
define linkonce_odr hidden noundef ptr @_ZNK4llvm9StringRef4dataEv(ptr noundef nonnull align 8 dereferenceable(16) %0) #0 comdat align 2 {
  %2 = alloca ptr, align 8
  store ptr %0, ptr %2, align 8
  %3 = load ptr, ptr %2, align 8
  %4 = getelementptr inbounds nuw %"class.llvm::StringRef", ptr %3, i32 0, i32 0
  %5 = load ptr, ptr %4, align 8
  ret ptr %5
}

; Function Attrs: mustprogress nounwind uwtable
define linkonce_odr hidden void @_ZN4llvm9StringRefC2EPKc(ptr noundef nonnull align 8 dereferenceable(16) %0, ptr noundef %1) unnamed_addr #0 comdat align 2 {
  %3 = alloca ptr, align 8
  %4 = alloca ptr, align 8
  store ptr %0, ptr %3, align 8
  store ptr %1, ptr %4, align 8
  %5 = load ptr, ptr %3, align 8
  %6 = getelementptr inbounds nuw %"class.llvm::StringRef", ptr %5, i32 0, i32 0
  %7 = load ptr, ptr %4, align 8
  store ptr %7, ptr %6, align 8
  %8 = getelementptr inbounds nuw %"class.llvm::StringRef", ptr %5, i32 0, i32 1
  %9 = load ptr, ptr %4, align 8
  %10 = icmp ne ptr %9, null
  br i1 %10, label %11, label %14

11:                                               ; preds = %2
  %12 = load ptr, ptr %4, align 8
  %13 = call noundef i64 @_ZNSt11char_traitsIcE6lengthEPKc(ptr noundef %12)
  br label %15

14:                                               ; preds = %2
  br label %15

15:                                               ; preds = %14, %11
  %16 = phi i64 [ %13, %11 ], [ 0, %14 ]
  store i64 %16, ptr %8, align 8
  ret void
}

; Function Attrs: mustprogress nounwind uwtable
define linkonce_odr hidden noundef i64 @_ZNSt11char_traitsIcE6lengthEPKc(ptr noundef %0) #0 comdat align 2 {
  %2 = alloca ptr, align 8
  store ptr %0, ptr %2, align 8
  %3 = load ptr, ptr %2, align 8
  %4 = call i64 @strlen(ptr noundef %3) #7
  ret i64 %4
}

; Function Attrs: mustprogress nounwind uwtable
define linkonce_odr hidden noundef nonnull align 8 dereferenceable(32) ptr @_ZN4llvmpLERNSt7__cxx1112basic_stringIcSt11char_traitsIcESaIcEEENS_9StringRefE(ptr noundef nonnull align 8 dereferenceable(32) %0, ptr %1, i64 %2) #0 comdat {
  %4 = alloca %"class.llvm::StringRef", align 8
  %5 = alloca ptr, align 8
  %6 = getelementptr inbounds nuw { ptr, i64 }, ptr %4, i32 0, i32 0
  store ptr %1, ptr %6, align 8
  %7 = getelementptr inbounds nuw { ptr, i64 }, ptr %4, i32 0, i32 1
  store i64 %2, ptr %7, align 8
  store ptr %0, ptr %5, align 8
  %8 = load ptr, ptr %5, align 8
  %9 = call noundef ptr @_ZNK4llvm9StringRef4dataEv(ptr noundef nonnull align 8 dereferenceable(16) %4)
  %10 = call noundef i64 @_ZNK4llvm9StringRef4sizeEv(ptr noundef nonnull align 8 dereferenceable(16) %4)
  %11 = call noundef nonnull align 8 dereferenceable(32) ptr @_ZNSt7__cxx1112basic_stringIcSt11char_traitsIcESaIcEE6appendEPKcm(ptr noundef nonnull align 8 dereferenceable(32) %8, ptr noundef %9, i64 noundef %10)
  ret ptr %11
}

; Function Attrs: mustprogress nounwind uwtable
define dso_local { ptr, i64 } @_ZN5clang6driver6Action18GetOffloadKindNameENS1_11OffloadKindE(i32 noundef %0) #0 align 2 {
  %2 = alloca %"class.llvm::StringRef", align 8
  %3 = alloca i32, align 4
  store i32 %0, ptr %3, align 4
  %4 = load i32, ptr %3, align 4
  switch i32 %4, label %9 [
    i32 0, label %5
    i32 1, label %5
    i32 2, label %6
    i32 4, label %7
    i32 8, label %8
  ]

5:                                                ; preds = %1, %1
  call void @_ZN4llvm9StringRefC2EPKc(ptr noundef nonnull align 8 dereferenceable(16) %2, ptr noundef @.str.26)
  br label %10

6:                                                ; preds = %1
  call void @_ZN4llvm9StringRefC2EPKc(ptr noundef nonnull align 8 dereferenceable(16) %2, ptr noundef @.str.31)
  br label %10

7:                                                ; preds = %1
  call void @_ZN4llvm9StringRefC2EPKc(ptr noundef nonnull align 8 dereferenceable(16) %2, ptr noundef @.str.32)
  br label %10

8:                                                ; preds = %1
  call void @_ZN4llvm9StringRefC2EPKc(ptr noundef nonnull align 8 dereferenceable(16) %2, ptr noundef @.str.33)
  br label %10

9:                                                ; preds = %1
  unreachable

10:                                               ; preds = %8, %7, %6, %5
  %11 = load { ptr, i64 }, ptr %2, align 8
  ret { ptr, i64 } %11
}

; Function Attrs: mustprogress nounwind uwtable
define linkonce_odr hidden void @_ZNSt7__cxx1112basic_stringIcSt11char_traitsIcESaIcEEC2IS3_EEPKcRKS3_(ptr noundef nonnull align 8 dereferenceable(32) %0, ptr noundef %1, ptr noundef nonnull align 1 dereferenceable(1) %2) unnamed_addr #0 comdat align 2 {
  %4 = alloca ptr, align 8
  %5 = alloca ptr, align 8
  %6 = alloca ptr, align 8
  %7 = alloca ptr, align 8
  store ptr %0, ptr %4, align 8
  store ptr %1, ptr %5, align 8
  store ptr %2, ptr %6, align 8
  %8 = load ptr, ptr %4, align 8
  %9 = getelementptr inbounds nuw %"class.std::__cxx11::basic_string", ptr %8, i32 0, i32 0
  %10 = call noundef ptr @_ZNSt7__cxx1112basic_stringIcSt11char_traitsIcESaIcEE13_M_local_dataEv(ptr noundef nonnull align 8 dereferenceable(32) %8)
  %11 = load ptr, ptr %6, align 8
  call void @_ZNSt7__cxx1112basic_stringIcSt11char_traitsIcESaIcEE12_Alloc_hiderC1EPcRKS3_(ptr noundef nonnull align 8 dereferenceable(8) %9, ptr noundef %10, ptr noundef nonnull align 1 dereferenceable(1) %11)
  %12 = load ptr, ptr %5, align 8
  %13 = icmp eq ptr %12, null
  br i1 %13, label %14, label %15

14:                                               ; preds = %3
  call void @_ZSt19__throw_logic_errorPKc(ptr noundef @.str.34) #9
  unreachable

15:                                               ; preds = %3
  %16 = load ptr, ptr %5, align 8
  %17 = load ptr, ptr %5, align 8
  %18 = call noundef i64 @_ZNSt11char_traitsIcE6lengthEPKc(ptr noundef %17)
  %19 = getelementptr inbounds i8, ptr %16, i64 %18
  store ptr %19, ptr %7, align 8
  %20 = load ptr, ptr %5, align 8
  %21 = load ptr, ptr %7, align 8
  call void @_ZNSt7__cxx1112basic_stringIcSt11char_traitsIcESaIcEE12_M_constructIPKcEEvT_S8_St20forward_iterator_tag(ptr noundef nonnull align 8 dereferenceable(32) %8, ptr noundef %20, ptr noundef %21)
  ret void
}

; Function Attrs: mustprogress nounwind uwtable
define dso_local void @_ZN5clang6driver6Action27GetOffloadingFileNamePrefixB5cxx11ENS1_11OffloadKindEN4llvm9StringRefEb(ptr dead_on_unwind noalias writable sret(%"class.std::__cxx11::basic_string") align 8 %0, i32 noundef %1, ptr %2, i64 %3, i1 noundef zeroext %4) #0 align 2 {
  %6 = alloca ptr, align 8
  %7 = alloca %"class.llvm::StringRef", align 8
  %8 = alloca i32, align 4
  %9 = alloca i8, align 1
  %10 = alloca i1, align 1
  %11 = alloca %"class.std::allocator", align 1
  %12 = alloca %"class.llvm::StringRef", align 8
  %13 = alloca %"class.llvm::StringRef", align 8
  store ptr %0, ptr %6, align 8
  %14 = getelementptr inbounds nuw { ptr, i64 }, ptr %7, i32 0, i32 0
  store ptr %2, ptr %14, align 8
  %15 = getelementptr inbounds nuw { ptr, i64 }, ptr %7, i32 0, i32 1
  store i64 %3, ptr %15, align 8
  store i32 %1, ptr %8, align 4
  %16 = zext i1 %4 to i8
  store i8 %16, ptr %9, align 1
  %17 = load i8, ptr %9, align 1
  %18 = trunc i8 %17 to i1
  br i1 %18, label %26, label %19

19:                                               ; preds = %5
  %20 = load i32, ptr %8, align 4
  %21 = icmp eq i32 %20, 0
  br i1 %21, label %25, label %22

22:                                               ; preds = %19
  %23 = load i32, ptr %8, align 4
  %24 = icmp eq i32 %23, 1
  br i1 %24, label %25, label %26

25:                                               ; preds = %22, %19
  call void @_ZNSt7__cxx1112basic_stringIcSt11char_traitsIcESaIcEEC1Ev(ptr noundef nonnull align 8 dereferenceable(32) %0) #7
  br label %47

26:                                               ; preds = %22, %5
  store i1 false, ptr %10, align 1
  call void @_ZNSaIcEC1Ev(ptr noundef nonnull align 1 dereferenceable(1) %11) #7
  call void @_ZNSt7__cxx1112basic_stringIcSt11char_traitsIcESaIcEEC2IS3_EEPKcRKS3_(ptr noundef nonnull align 8 dereferenceable(32) %0, ptr noundef @.str.30, ptr noundef nonnull align 1 dereferenceable(1) %11)
  call void @_ZNSaIcED1Ev(ptr noundef nonnull align 1 dereferenceable(1) %11) #7
  %27 = load i32, ptr %8, align 4
  %28 = call { ptr, i64 } @_ZN5clang6driver6Action18GetOffloadKindNameENS1_11OffloadKindE(i32 noundef %27)
  %29 = getelementptr inbounds nuw { ptr, i64 }, ptr %12, i32 0, i32 0
  %30 = extractvalue { ptr, i64 } %28, 0
  store ptr %30, ptr %29, align 8
  %31 = getelementptr inbounds nuw { ptr, i64 }, ptr %12, i32 0, i32 1
  %32 = extractvalue { ptr, i64 } %28, 1
  store i64 %32, ptr %31, align 8
  %33 = getelementptr inbounds nuw { ptr, i64 }, ptr %12, i32 0, i32 0
  %34 = load ptr, ptr %33, align 8
  %35 = getelementptr inbounds nuw { ptr, i64 }, ptr %12, i32 0, i32 1
  %36 = load i64, ptr %35, align 8
  %37 = call noundef nonnull align 8 dereferenceable(32) ptr @_ZN4llvmpLERNSt7__cxx1112basic_stringIcSt11char_traitsIcESaIcEEENS_9StringRefE(ptr noundef nonnull align 8 dereferenceable(32) %0, ptr %34, i64 %36)
  %38 = call noundef nonnull align 8 dereferenceable(32) ptr @_ZNSt7__cxx1112basic_stringIcSt11char_traitsIcESaIcEEpLEPKc(ptr noundef nonnull align 8 dereferenceable(32) %0, ptr noundef @.str.30)
  call void @llvm.memcpy.p0.p0.i64(ptr align 8 %13, ptr align 8 %7, i64 16, i1 false)
  %39 = getelementptr inbounds nuw { ptr, i64 }, ptr %13, i32 0, i32 0
  %40 = load ptr, ptr %39, align 8
  %41 = getelementptr inbounds nuw { ptr, i64 }, ptr %13, i32 0, i32 1
  %42 = load i64, ptr %41, align 8
  %43 = call noundef nonnull align 8 dereferenceable(32) ptr @_ZN4llvmpLERNSt7__cxx1112basic_stringIcSt11char_traitsIcESaIcEEENS_9StringRefE(ptr noundef nonnull align 8 dereferenceable(32) %0, ptr %40, i64 %42)
  store i1 true, ptr %10, align 1
  %44 = load i1, ptr %10, align 1
  br i1 %44, label %46, label %45

45:                                               ; preds = %26
  call void @_ZNSt7__cxx1112basic_stringIcSt11char_traitsIcESaIcEED1Ev(ptr noundef nonnull align 8 dereferenceable(32) %0) #7
  br label %46

46:                                               ; preds = %45, %26
  br label %47

47:                                               ; preds = %46, %25
  ret void
}