; Function Attrs: mustprogress nounwind uwtable
define dso_local void @_ZN5clang6driver6Action27GetOffloadingFileNamePrefixB5cxx11ENS1_11OffloadKindEN4llvm9StringRefEb(ptr dead_on_unwind noalias writable sret(%"class.std::__cxx11::basic_string") align 8 %0, i32 noundef %1, ptr %2, i64 %3, i1 noundef zeroext %4) local_unnamed_addr #0 align 2 {
  %6 = alloca %"class.std::allocator", align 1
  %or.cond = icmp ugt i32 %1, 1
  %or.cond9.not = or i1 %or.cond, %4
  br i1 %or.cond9.not, label %switch.lookup, label %7

7:                                                ; preds = %5
  tail call void @_ZNSt7__cxx1112basic_stringIcSt11char_traitsIcESaIcEEC1Ev(ptr noundef nonnull align 8 dereferenceable(32) %0) #11
  br label %14

switch.lookup:                                    ; preds = %5
  call void @_ZNSaIcEC1Ev(ptr noundef nonnull align 1 dereferenceable(1) %6) #11
  %8 = call noundef ptr @_ZNSt7__cxx1112basic_stringIcSt11char_traitsIcESaIcEE13_M_local_dataEv(ptr noundef nonnull align 8 dereferenceable(32) %0) #11
  call void @_ZNSt7__cxx1112basic_stringIcSt11char_traitsIcESaIcEE12_Alloc_hiderC1EPcRKS3_(ptr noundef nonnull align 8 dereferenceable(8) %0, ptr noundef %8, ptr noundef nonnull align 1 dereferenceable(1) %6) #11
  call void @_ZNSt7__cxx1112basic_stringIcSt11char_traitsIcESaIcEE12_M_constructIPKcEEvT_S8_St20forward_iterator_tag(ptr noundef nonnull align 8 dereferenceable(32) %0, ptr noundef nonnull @.str.30, ptr noundef nonnull getelementptr inbounds (i8, ptr @.str.30, i64 1))
  call void @_ZNSaIcED1Ev(ptr noundef nonnull align 1 dereferenceable(1) %6) #11
  %9 = sext i32 %1 to i64
  %switch.gep = getelementptr inbounds [9 x i64], ptr @switch.table._ZN5clang6driver6Action18GetOffloadKindNameENS1_11OffloadKindE, i64 0, i64 %9
  %switch.load = load i64, ptr %switch.gep, align 8
  %10 = sext i32 %1 to i64
  %switch.gep10 = getelementptr inbounds [9 x ptr], ptr @switch.table._ZN5clang6driver6Action18GetOffloadKindNameENS1_11OffloadKindE.2, i64 0, i64 %10
  %switch.load11 = load ptr, ptr %switch.gep10, align 8
  %11 = call noundef nonnull align 8 dereferenceable(32) ptr @_ZNSt7__cxx1112basic_stringIcSt11char_traitsIcESaIcEE6appendEPKcm(ptr noundef nonnull align 8 dereferenceable(32) %0, ptr noundef nonnull %switch.load11, i64 noundef %switch.load) #11
  %12 = call noundef nonnull align 8 dereferenceable(32) ptr @_ZNSt7__cxx1112basic_stringIcSt11char_traitsIcESaIcEEpLEPKc(ptr noundef nonnull align 8 dereferenceable(32) %0, ptr noundef nonnull @.str.30) #11
  %13 = call noundef nonnull align 8 dereferenceable(32) ptr @_ZNSt7__cxx1112basic_stringIcSt11char_traitsIcESaIcEE6appendEPKcm(ptr noundef nonnull align 8 dereferenceable(32) %0, ptr noundef %2, i64 noundef %3) #11
  br label %14

14:                                               ; preds = %switch.lookup, %7
  ret void
}